; ModuleID = '20/607.c'
source_filename = "20/607.c"
target datalayout = "e-m:e-p270:32:32-p271:32:32-p272:64:64-i64:64-f80:128-n8:16:32:64-S128"
target triple = "x86_64-pc-linux-gnu"

@.str = private unnamed_addr constant [6 x i8] c"%s %s\00", align 1
@.str.1 = private unnamed_addr constant [3 x i8] c"%c\00", align 1
@.str.2 = private unnamed_addr constant [2 x i8] c"\0A\00", align 1

; Function Attrs: noinline nounwind uwtable
define dso_local void @main() #0 {
  %1 = alloca i32, align 4
  %2 = alloca i32, align 4
  %3 = alloca i32, align 4
  %4 = alloca i32, align 4
  %5 = alloca i32, align 4
  %6 = alloca [30 x [10 x i8]], align 16
  %7 = alloca [30 x [3 x i8]], align 16
  %8 = alloca [30 x [13 x i8]], align 16
  %9 = alloca [30 x i8*], align 16
  %10 = alloca i8*, align 8
  %11 = alloca i8*, align 8
  %12 = alloca i8*, align 8
  store i32 0, i32* %1, align 4
  %13 = bitcast [30 x [10 x i8]]* %6 to i8*
  call void @llvm.memset.p0i8.i64(i8* align 16 %13, i8 0, i64 300, i1 false)
  %14 = bitcast [30 x [3 x i8]]* %7 to i8*
  call void @llvm.memset.p0i8.i64(i8* align 16 %14, i8 0, i64 90, i1 false)
  %15 = bitcast [30 x [13 x i8]]* %8 to i8*
  call void @llvm.memset.p0i8.i64(i8* align 16 %15, i8 0, i64 390, i1 false)
  br label %16

16:                                               ; preds = %27, %0
  %17 = load i32, i32* %1, align 4
  %18 = sext i32 %17 to i64
  %19 = getelementptr inbounds [30 x [10 x i8]], [30 x [10 x i8]]* %6, i64 0, i64 %18
  %20 = getelementptr inbounds [10 x i8], [10 x i8]* %19, i64 0, i64 0
  %21 = load i32, i32* %1, align 4
  %22 = sext i32 %21 to i64
  %23 = getelementptr inbounds [30 x [3 x i8]], [30 x [3 x i8]]* %7, i64 0, i64 %22
  %24 = getelementptr inbounds [3 x i8], [3 x i8]* %23, i64 0, i64 0
  %25 = call i32 (i8*, ...) @__isoc99_scanf(i8* getelementptr inbounds ([6 x i8], [6 x i8]* @.str, i64 0, i64 0), i8* %20, i8* %24)
  %26 = icmp ne i32 %25, -1
  br i1 %26, label %27, label %30

27:                                               ; preds = %16
  %28 = load i32, i32* %1, align 4
  %29 = add nsw i32 %28, 1
  store i32 %29, i32* %1, align 4
  br label %16

30:                                               ; preds = %16
  %31 = load i32, i32* %1, align 4
  store i32 %31, i32* %3, align 4
  store i32 0, i32* %1, align 4
  br label %32

32:                                               ; preds = %192, %30
  %33 = load i32, i32* %1, align 4
  %34 = load i32, i32* %3, align 4
  %35 = icmp slt i32 %33, %34
  br i1 %35, label %36, label %195

36:                                               ; preds = %32
  %37 = load i32, i32* %1, align 4
  %38 = sext i32 %37 to i64
  %39 = getelementptr inbounds [30 x [10 x i8]], [30 x [10 x i8]]* %6, i64 0, i64 %38
  %40 = getelementptr inbounds [10 x i8], [10 x i8]* %39, i64 0, i64 0
  %41 = load i32, i32* %1, align 4
  %42 = sext i32 %41 to i64
  %43 = getelementptr inbounds [30 x i8*], [30 x i8*]* %9, i64 0, i64 %42
  store i8* %40, i8** %43, align 8
  store i32 1, i32* %5, align 4
  %44 = load i32, i32* %1, align 4
  %45 = sext i32 %44 to i64
  %46 = getelementptr inbounds [30 x i8*], [30 x i8*]* %9, i64 0, i64 %45
  %47 = load i8*, i8** %46, align 8
  %48 = load i8, i8* %47, align 1
  %49 = sext i8 %48 to i32
  store i32 %49, i32* %4, align 4
  store i32 0, i32* %2, align 4
  br label %50

50:                                               ; preds = %85, %36
  %51 = load i32, i32* %1, align 4
  %52 = sext i32 %51 to i64
  %53 = getelementptr inbounds [30 x [10 x i8]], [30 x [10 x i8]]* %6, i64 0, i64 %52
  %54 = load i32, i32* %2, align 4
  %55 = sext i32 %54 to i64
  %56 = getelementptr inbounds [10 x i8], [10 x i8]* %53, i64 0, i64 %55
  %57 = load i8, i8* %56, align 1
  %58 = sext i8 %57 to i32
  %59 = icmp ne i32 %58, 0
  br i1 %59, label %60, label %88

60:                                               ; preds = %50
  %61 = load i32, i32* %1, align 4
  %62 = sext i32 %61 to i64
  %63 = getelementptr inbounds [30 x [10 x i8]], [30 x [10 x i8]]* %6, i64 0, i64 %62
  %64 = getelementptr inbounds [10 x i8], [10 x i8]* %63, i64 0, i64 0
  %65 = load i32, i32* %2, align 4
  %66 = sext i32 %65 to i64
  %67 = getelementptr inbounds i8, i8* %64, i64 %66
  %68 = load i8, i8* %67, align 1
  %69 = sext i8 %68 to i32
  %70 = load i32, i32* %4, align 4
  %71 = icmp sgt i32 %69, %70
  br i1 %71, label %72, label %84

72:                                               ; preds = %60
  %73 = load i32, i32* %1, align 4
  %74 = sext i32 %73 to i64
  %75 = getelementptr inbounds [30 x [10 x i8]], [30 x [10 x i8]]* %6, i64 0, i64 %74
  %76 = getelementptr inbounds [10 x i8], [10 x i8]* %75, i64 0, i64 0
  %77 = load i32, i32* %2, align 4
  %78 = sext i32 %77 to i64
  %79 = getelementptr inbounds i8, i8* %76, i64 %78
  %80 = load i8, i8* %79, align 1
  %81 = sext i8 %80 to i32
  store i32 %81, i32* %4, align 4
  %82 = load i32, i32* %2, align 4
  %83 = add nsw i32 %82, 1
  store i32 %83, i32* %5, align 4
  br label %84

84:                                               ; preds = %72, %60
  br label %85

85:                                               ; preds = %84
  %86 = load i32, i32* %2, align 4
  %87 = add nsw i32 %86, 1
  store i32 %87, i32* %2, align 4
  br label %50

88:                                               ; preds = %50
  %89 = load i32, i32* %1, align 4
  %90 = sext i32 %89 to i64
  %91 = getelementptr inbounds [30 x [10 x i8]], [30 x [10 x i8]]* %6, i64 0, i64 %90
  %92 = getelementptr inbounds [10 x i8], [10 x i8]* %91, i64 0, i64 0
  store i8* %92, i8** %10, align 8
  %93 = load i32, i32* %1, align 4
  %94 = sext i32 %93 to i64
  %95 = getelementptr inbounds [30 x [3 x i8]], [30 x [3 x i8]]* %7, i64 0, i64 %94
  %96 = getelementptr inbounds [3 x i8], [3 x i8]* %95, i64 0, i64 0
  store i8* %96, i8** %11, align 8
  %97 = load i32, i32* %1, align 4
  %98 = sext i32 %97 to i64
  %99 = getelementptr inbounds [30 x [13 x i8]], [30 x [13 x i8]]* %8, i64 0, i64 %98
  %100 = getelementptr inbounds [13 x i8], [13 x i8]* %99, i64 0, i64 0
  store i8* %100, i8** %12, align 8
  store i32 0, i32* %2, align 4
  br label %101

101:                                              ; preds = %115, %88
  %102 = load i32, i32* %2, align 4
  %103 = load i32, i32* %5, align 4
  %104 = icmp slt i32 %102, %103
  br i1 %104, label %105, label %118

105:                                              ; preds = %101
  %106 = load i8*, i8** %10, align 8
  %107 = load i32, i32* %2, align 4
  %108 = sext i32 %107 to i64
  %109 = getelementptr inbounds i8, i8* %106, i64 %108
  %110 = load i8, i8* %109, align 1
  %111 = load i8*, i8** %12, align 8
  %112 = load i32, i32* %2, align 4
  %113 = sext i32 %112 to i64
  %114 = getelementptr inbounds i8, i8* %111, i64 %113
  store i8 %110, i8* %114, align 1
  br label %115

115:                                              ; preds = %105
  %116 = load i32, i32* %2, align 4
  %117 = add nsw i32 %116, 1
  store i32 %117, i32* %2, align 4
  br label %101

118:                                              ; preds = %101
  %119 = load i32, i32* %5, align 4
  store i32 %119, i32* %2, align 4
  br label %120

120:                                              ; preds = %139, %118
  %121 = load i32, i32* %2, align 4
  %122 = load i32, i32* %5, align 4
  %123 = add nsw i32 %122, 3
  %124 = icmp slt i32 %121, %123
  br i1 %124, label %125, label %142

125:                                              ; preds = %120
  %126 = load i8*, i8** %11, align 8
  %127 = load i32, i32* %2, align 4
  %128 = sext i32 %127 to i64
  %129 = getelementptr inbounds i8, i8* %126, i64 %128
  %130 = load i32, i32* %5, align 4
  %131 = sext i32 %130 to i64
  %132 = sub i64 0, %131
  %133 = getelementptr inbounds i8, i8* %129, i64 %132
  %134 = load i8, i8* %133, align 1
  %135 = load i8*, i8** %12, align 8
  %136 = load i32, i32* %2, align 4
  %137 = sext i32 %136 to i64
  %138 = getelementptr inbounds i8, i8* %135, i64 %137
  store i8 %134, i8* %138, align 1
  br label %139

139:                                              ; preds = %125
  %140 = load i32, i32* %2, align 4
  %141 = add nsw i32 %140, 1
  store i32 %141, i32* %2, align 4
  br label %120

142:                                              ; preds = %120
  %143 = load i32, i32* %5, align 4
  store i32 %143, i32* %2, align 4
  br label %144

144:                                              ; preds = %165, %142
  %145 = load i32, i32* %1, align 4
  %146 = sext i32 %145 to i64
  %147 = getelementptr inbounds [30 x [10 x i8]], [30 x [10 x i8]]* %6, i64 0, i64 %146
  %148 = load i32, i32* %2, align 4
  %149 = sext i32 %148 to i64
  %150 = getelementptr inbounds [10 x i8], [10 x i8]* %147, i64 0, i64 %149
  %151 = load i8, i8* %150, align 1
  %152 = sext i8 %151 to i32
  %153 = icmp ne i32 %152, 0
  br i1 %153, label %154, label %168

154:                                              ; preds = %144
  %155 = load i8*, i8** %10, align 8
  %156 = load i32, i32* %2, align 4
  %157 = sext i32 %156 to i64
  %158 = getelementptr inbounds i8, i8* %155, i64 %157
  %159 = load i8, i8* %158, align 1
  %160 = load i8*, i8** %12, align 8
  %161 = getelementptr inbounds i8, i8* %160, i64 3
  %162 = load i32, i32* %2, align 4
  %163 = sext i32 %162 to i64
  %164 = getelementptr inbounds i8, i8* %161, i64 %163
  store i8 %159, i8* %164, align 1
  br label %165

165:                                              ; preds = %154
  %166 = load i32, i32* %2, align 4
  %167 = add nsw i32 %166, 1
  store i32 %167, i32* %2, align 4
  br label %144

168:                                              ; preds = %144
  store i32 0, i32* %2, align 4
  br label %169

169:                                              ; preds = %187, %168
  %170 = load i32, i32* %1, align 4
  %171 = sext i32 %170 to i64
  %172 = getelementptr inbounds [30 x [13 x i8]], [30 x [13 x i8]]* %8, i64 0, i64 %171
  %173 = load i32, i32* %2, align 4
  %174 = sext i32 %173 to i64
  %175 = getelementptr inbounds [13 x i8], [13 x i8]* %172, i64 0, i64 %174
  %176 = load i8, i8* %175, align 1
  %177 = sext i8 %176 to i32
  %178 = icmp ne i32 %177, 0
  br i1 %178, label %179, label %190

179:                                              ; preds = %169
  %180 = load i8*, i8** %12, align 8
  %181 = load i32, i32* %2, align 4
  %182 = sext i32 %181 to i64
  %183 = getelementptr inbounds i8, i8* %180, i64 %182
  %184 = load i8, i8* %183, align 1
  %185 = sext i8 %184 to i32
  %186 = call i32 (i8*, ...) @printf(i8* getelementptr inbounds ([3 x i8], [3 x i8]* @.str.1, i64 0, i64 0), i32 %185)
  br label %187

187:                                              ; preds = %179
  %188 = load i32, i32* %2, align 4
  %189 = add nsw i32 %188, 1
  store i32 %189, i32* %2, align 4
  br label %169

190:                                              ; preds = %169
  %191 = call i32 (i8*, ...) @printf(i8* getelementptr inbounds ([2 x i8], [2 x i8]* @.str.2, i64 0, i64 0))
  br label %192

192:                                              ; preds = %190
  %193 = load i32, i32* %1, align 4
  %194 = add nsw i32 %193, 1
  store i32 %194, i32* %1, align 4
  br label %32

195:                                              ; preds = %32
  ret void
}

; Function Attrs: argmemonly nounwind willreturn
declare void @llvm.memset.p0i8.i64(i8* nocapture writeonly, i8, i64, i1 immarg) #1

declare dso_local i32 @__isoc99_scanf(i8*, ...) #2

declare dso_local i32 @printf(i8*, ...) #2


!llvm.module.flags = !{!0}
!llvm.ident = !{!1}

!0 = !{i32 1, !"wchar_size", i32 4}
!1 = !{!"clang version 10.0.0-4ubuntu1 "}
